target datalayout = "e-m:e-p270:32:32-p271:32:32-p272:64:64-i64:64-i128:128-f80:128-n8:16:32:64-S128"
target triple = "x86_64-pc-linux-gnu"

%"class.std::unordered_set" = type { %"class.std::_Hashtable" }
%"class.std::_Hashtable" = type { ptr, i64, %"struct.std::__detail::_Hash_node_base", i64, %"struct.std::__detail::_Prime_rehash_policy", ptr }
%"struct.std::__detail::_Hash_node_base" = type { ptr }
%"struct.std::__detail::_Prime_rehash_policy" = type { float, i64 }
%"class.glslang::TIntermTraverser" = type { ptr, i8, i8, i8, i8, i32, i32, %"class.glslang::TVector" }
%"class.glslang::TVector" = type { %"class.std::vector.165" }
%"class.std::vector.165" = type { %"struct.std::_Vector_base.166" }
%"struct.std::_Vector_base.166" = type { %"struct.std::_Vector_base<TIntermNode *, glslang::pool_allocator<TIntermNode *>>::_Vector_impl" }
%"struct.std::_Vector_base<TIntermNode *, glslang::pool_allocator<TIntermNode *>>::_Vector_impl" = type { %"class.glslang::pool_allocator", %"struct.std::_Vector_base<TIntermNode *, glslang::pool_allocator<TIntermNode *>>::_Vector_impl_data" }
%"class.glslang::pool_allocator" = type { ptr }
%"struct.std::_Vector_base<TIntermNode *, glslang::pool_allocator<TIntermNode *>>::_Vector_impl_data" = type { ptr, ptr, ptr }
%"class.std::__cxx11::basic_string" = type { %"struct.std::__cxx11::basic_string<char>::_Alloc_hider", i64, %union.anon }
%"struct.std::__cxx11::basic_string<char>::_Alloc_hider" = type { ptr }
%union.anon = type { i64, [8 x i8] }
%"struct.std::__detail::_Node_iterator" = type { %"struct.std::__detail::_Node_iterator_base" }
%"struct.std::__detail::_Node_iterator_base" = type { ptr }
%"class.(anonymous namespace)::TSymbolDefinitionCollectingTraverser" = type { %"class.glslang::TIntermTraverser", ptr, ptr, ptr, %"class.std::__cxx11::basic_string", ptr, ptr }
%"class.glslang::TQualifier" = type <{ ptr, i64, i8, [3 x i8], i32, i32, i64, i64, i8, i8, i8, i8, i8, [3 x i8], i32, i8, i8, i8, i8, i32, ptr, i8, i8, [6 x i8] }>
%"struct.std::__detail::_Identity" = type { i8 }
%"struct.std::pair.237" = type <{ %"struct.std::__detail::_Node_iterator", i8, [7 x i8] }>
%class.TIntermNode = type { ptr, %"struct.glslang::TSourceLoc" }
%"struct.glslang::TSourceLoc" = type { ptr, i32, i32, i32 }
%"class.glslang::TIntermBranch" = type { %class.TIntermNode, i32, ptr }
%"struct.std::__detail::_AllocNode.240" = type { ptr }

; Function Attrs: mustprogress nounwind uwtable
define linkonce_odr noundef nonnull align 8 dereferenceable(8) ptr @_ZNSt10_HashtableIPN7glslang13TIntermBranchES2_SaIS2_ENSt8__detail9_IdentityESt8equal_toIS2_ESt4hashIS2_ENS4_18_Mod_range_hashingENS4_20_Default_ranged_hashENS4_20_Prime_rehash_policyENS4_17_Hashtable_traitsILb0ELb1ELb1EEEE14_S_forward_keyERKS2_(ptr noundef nonnull align 8 dereferenceable(8) %0) #0 comdat align 2 {
  %2 = alloca ptr, align 8
  store ptr %0, ptr %2, align 8
  %3 = load ptr, ptr %2, align 8
  ret ptr %3
}

; Function Attrs: mustprogress nounwind uwtable
define linkonce_odr noundef nonnull align 8 dereferenceable(8) ptr @_ZNKSt8__detail9_IdentityclIRKPN7glslang13TIntermBranchEEEOT_S8_(ptr noundef nonnull align 1 dereferenceable(1) %0, ptr noundef nonnull align 8 dereferenceable(8) %1) #0 comdat align 2 {
  %3 = alloca ptr, align 8
  %4 = alloca ptr, align 8
  store ptr %0, ptr %3, align 8
  store ptr %1, ptr %4, align 8
  %5 = load ptr, ptr %4, align 8
  ret ptr %5
}

; Function Attrs: mustprogress nounwind uwtable
define linkonce_odr { ptr, i8 } @_ZNSt10_HashtableIPN7glslang13TIntermBranchES2_SaIS2_ENSt8__detail9_IdentityESt8equal_toIS2_ESt4hashIS2_ENS4_18_Mod_range_hashingENS4_20_Default_ranged_hashENS4_20_Prime_rehash_policyENS4_17_Hashtable_traitsILb0ELb1ELb1EEEE9_M_insertIRKS2_NS4_10_AllocNodeISaINS4_10_Hash_nodeIS2_Lb0EEEEEEEESt4pairINS4_14_Node_iteratorIS2_Lb1ELb0EEEbEOT_RKT0_St17integral_constantIbLb1EE(ptr noundef nonnull align 8 dereferenceable(56) %0, ptr noundef nonnull align 8 dereferenceable(8) %1, ptr noundef nonnull align 8 dereferenceable(8) %2) #0 comdat align 2 {
  %4 = alloca %"struct.std::pair.237", align 8
  %5 = alloca ptr, align 8
  %6 = alloca ptr, align 8
  %7 = alloca ptr, align 8
  %8 = alloca %"struct.std::__detail::_Identity", align 1
  store ptr %0, ptr %5, align 8
  store ptr %1, ptr %6, align 8
  store ptr %2, ptr %7, align 8
  %9 = load ptr, ptr %5, align 8
  %10 = load ptr, ptr %6, align 8
  %11 = call noundef nonnull align 8 dereferenceable(8) ptr @_ZNKSt8__detail9_IdentityclIRKPN7glslang13TIntermBranchEEEOT_S8_(ptr noundef nonnull align 1 dereferenceable(1) %8, ptr noundef nonnull align 8 dereferenceable(8) %10) #8
  %12 = call noundef nonnull align 8 dereferenceable(8) ptr @_ZNSt10_HashtableIPN7glslang13TIntermBranchES2_SaIS2_ENSt8__detail9_IdentityESt8equal_toIS2_ESt4hashIS2_ENS4_18_Mod_range_hashingENS4_20_Default_ranged_hashENS4_20_Prime_rehash_policyENS4_17_Hashtable_traitsILb0ELb1ELb1EEEE14_S_forward_keyERKS2_(ptr noundef nonnull align 8 dereferenceable(8) %11)
  %13 = load ptr, ptr %6, align 8
  %14 = load ptr, ptr %7, align 8
  %15 = call { ptr, i8 } @_ZNSt10_HashtableIPN7glslang13TIntermBranchES2_SaIS2_ENSt8__detail9_IdentityESt8equal_toIS2_ESt4hashIS2_ENS4_18_Mod_range_hashingENS4_20_Default_ranged_hashENS4_20_Prime_rehash_policyENS4_17_Hashtable_traitsILb0ELb1ELb1EEEE16_M_insert_uniqueIRKS2_SI_NS4_10_AllocNodeISaINS4_10_Hash_nodeIS2_Lb0EEEEEEEESt4pairINS4_14_Node_iteratorIS2_Lb1ELb0EEEbEOT_OT0_RKT1_(ptr noundef nonnull align 8 dereferenceable(56) %9, ptr noundef nonnull align 8 dereferenceable(8) %12, ptr noundef nonnull align 8 dereferenceable(8) %13, ptr noundef nonnull align 8 dereferenceable(8) %14)
  %16 = getelementptr inbounds { ptr, i8 }, ptr %4, i32 0, i32 0
  %17 = extractvalue { ptr, i8 } %15, 0
  store ptr %17, ptr %16, align 8
  %18 = getelementptr inbounds { ptr, i8 }, ptr %4, i32 0, i32 1
  %19 = extractvalue { ptr, i8 } %15, 1
  store i8 %19, ptr %18, align 8
  %20 = load { ptr, i8 }, ptr %4, align 8
  ret { ptr, i8 } %20
}

; Function Attrs: mustprogress nounwind uwtable
define linkonce_odr void @_ZNSt8__detail10_AllocNodeISaINS_10_Hash_nodeIPN7glslang13TIntermBranchELb0EEEEEC2ERNS_16_Hashtable_allocIS6_EE(ptr noundef nonnull align 8 dereferenceable(8) %0, ptr noundef nonnull align 1 dereferenceable(1) %1) unnamed_addr #0 comdat align 2 {
  %3 = alloca ptr, align 8
  %4 = alloca ptr, align 8
  store ptr %0, ptr %3, align 8
  store ptr %1, ptr %4, align 8
  %5 = load ptr, ptr %3, align 8
  %6 = getelementptr inbounds %"struct.std::__detail::_AllocNode.240", ptr %5, i32 0, i32 0
  %7 = load ptr, ptr %4, align 8
  store ptr %7, ptr %6, align 8
  ret void
}

; Function Attrs: mustprogress nounwind uwtable
define linkonce_odr noundef nonnull align 8 dereferenceable(56) ptr @_ZNSt8__detail12_Insert_baseIPN7glslang13TIntermBranchES3_SaIS3_ENS_9_IdentityESt8equal_toIS3_ESt4hashIS3_ENS_18_Mod_range_hashingENS_20_Default_ranged_hashENS_20_Prime_rehash_policyENS_17_Hashtable_traitsILb0ELb1ELb1EEEE20_M_conjure_hashtableEv(ptr noundef nonnull align 1 dereferenceable(1) %0) #0 comdat align 2 {
  %2 = alloca ptr, align 8
  store ptr %0, ptr %2, align 8
  %3 = load ptr, ptr %2, align 8
  ret ptr %3
}

; Function Attrs: mustprogress nounwind uwtable
define linkonce_odr { ptr, i8 } @_ZNSt8__detail12_Insert_baseIPN7glslang13TIntermBranchES3_SaIS3_ENS_9_IdentityESt8equal_toIS3_ESt4hashIS3_ENS_18_Mod_range_hashingENS_20_Default_ranged_hashENS_20_Prime_rehash_policyENS_17_Hashtable_traitsILb0ELb1ELb1EEEE6insertERKS3_(ptr noundef nonnull align 1 dereferenceable(1) %0, ptr noundef nonnull align 8 dereferenceable(8) %1) #0 comdat align 2 {
  %3 = alloca %"struct.std::pair.237", align 8
  %4 = alloca ptr, align 8
  %5 = alloca ptr, align 8
  %6 = alloca ptr, align 8
  %7 = alloca %"struct.std::__detail::_AllocNode.240", align 8
  store ptr %0, ptr %4, align 8
  store ptr %1, ptr %5, align 8
  %8 = load ptr, ptr %4, align 8
  %9 = call noundef nonnull align 8 dereferenceable(56) ptr @_ZNSt8__detail12_Insert_baseIPN7glslang13TIntermBranchES3_SaIS3_ENS_9_IdentityESt8equal_toIS3_ESt4hashIS3_ENS_18_Mod_range_hashingENS_20_Default_ranged_hashENS_20_Prime_rehash_policyENS_17_Hashtable_traitsILb0ELb1ELb1EEEE20_M_conjure_hashtableEv(ptr noundef nonnull align 1 dereferenceable(1) %8)
  store ptr %9, ptr %6, align 8
  %10 = load ptr, ptr %6, align 8
  call void @_ZNSt8__detail10_AllocNodeISaINS_10_Hash_nodeIPN7glslang13TIntermBranchELb0EEEEEC2ERNS_16_Hashtable_allocIS6_EE(ptr noundef nonnull align 8 dereferenceable(8) %7, ptr noundef nonnull align 1 dereferenceable(1) %10)
  %11 = load ptr, ptr %6, align 8
  %12 = load ptr, ptr %5, align 8
  %13 = call { ptr, i8 } @_ZNSt10_HashtableIPN7glslang13TIntermBranchES2_SaIS2_ENSt8__detail9_IdentityESt8equal_toIS2_ESt4hashIS2_ENS4_18_Mod_range_hashingENS4_20_Default_ranged_hashENS4_20_Prime_rehash_policyENS4_17_Hashtable_traitsILb0ELb1ELb1EEEE9_M_insertIRKS2_NS4_10_AllocNodeISaINS4_10_Hash_nodeIS2_Lb0EEEEEEEESt4pairINS4_14_Node_iteratorIS2_Lb1ELb0EEEbEOT_RKT0_St17integral_constantIbLb1EE(ptr noundef nonnull align 8 dereferenceable(56) %11, ptr noundef nonnull align 8 dereferenceable(8) %12, ptr noundef nonnull align 8 dereferenceable(8) %7)
  %14 = getelementptr inbounds { ptr, i8 }, ptr %3, i32 0, i32 0
  %15 = extractvalue { ptr, i8 } %13, 0
  store ptr %15, ptr %14, align 8
  %16 = getelementptr inbounds { ptr, i8 }, ptr %3, i32 0, i32 1
  %17 = extractvalue { ptr, i8 } %13, 1
  store i8 %17, ptr %16, align 8
  %18 = load { ptr, i8 }, ptr %3, align 8
  ret { ptr, i8 } %18
}

; Function Attrs: mustprogress nounwind uwtable
define linkonce_odr { ptr, i8 } @_ZNSt13unordered_setIPN7glslang13TIntermBranchESt4hashIS2_ESt8equal_toIS2_ESaIS2_EE6insertERKS2_(ptr noundef nonnull align 8 dereferenceable(56) %0, ptr noundef nonnull align 8 dereferenceable(8) %1) #0 comdat align 2 {
  %3 = alloca %"struct.std::pair.237", align 8
  %4 = alloca ptr, align 8
  %5 = alloca ptr, align 8
  store ptr %0, ptr %4, align 8
  store ptr %1, ptr %5, align 8
  %6 = load ptr, ptr %4, align 8
  %7 = getelementptr inbounds %"class.std::unordered_set", ptr %6, i32 0, i32 0
  %8 = load ptr, ptr %5, align 8
  %9 = call { ptr, i8 } @_ZNSt8__detail12_Insert_baseIPN7glslang13TIntermBranchES3_SaIS3_ENS_9_IdentityESt8equal_toIS3_ESt4hashIS3_ENS_18_Mod_range_hashingENS_20_Default_ranged_hashENS_20_Prime_rehash_policyENS_17_Hashtable_traitsILb0ELb1ELb1EEEE6insertERKS3_(ptr noundef nonnull align 1 dereferenceable(1) %7, ptr noundef nonnull align 8 dereferenceable(8) %8)
  %10 = getelementptr inbounds { ptr, i8 }, ptr %3, i32 0, i32 0
  %11 = extractvalue { ptr, i8 } %9, 0
  store ptr %11, ptr %10, align 8
  %12 = getelementptr inbounds { ptr, i8 }, ptr %3, i32 0, i32 1
  %13 = extractvalue { ptr, i8 } %9, 1
  store i8 %13, ptr %12, align 8
  %14 = load { ptr, i8 }, ptr %3, align 8
  ret { ptr, i8 } %14
}

; Function Attrs: mustprogress nounwind uwtable
define linkonce_odr noundef ptr @_ZNK7glslang13TIntermBranch13getExpressionEv(ptr noundef nonnull align 8 dereferenceable(48) %0) #0 comdat align 2 {
  %2 = alloca ptr, align 8
  store ptr %0, ptr %2, align 8
  %3 = load ptr, ptr %2, align 8
  %4 = getelementptr inbounds %"class.glslang::TIntermBranch", ptr %3, i32 0, i32 2
  %5 = load ptr, ptr %4, align 8
  ret ptr %5
}

; Function Attrs: mustprogress nounwind uwtable
define linkonce_odr noundef i32 @_ZNK7glslang13TIntermBranch9getFlowOpEv(ptr noundef nonnull align 8 dereferenceable(48) %0) #0 comdat align 2 {
  %2 = alloca ptr, align 8
  store ptr %0, ptr %2, align 8
  %3 = load ptr, ptr %2, align 8
  %4 = getelementptr inbounds %"class.glslang::TIntermBranch", ptr %3, i32 0, i32 1
  %5 = load i32, ptr %4, align 8
  ret i32 %5
}

; Function Attrs: mustprogress nounwind uwtable
define internal noundef zeroext i1 @_ZN12_GLOBAL__N_136TSymbolDefinitionCollectingTraverser11visitBranchEN7glslang6TVisitEPNS1_13TIntermBranchE(ptr noundef nonnull align 8 dereferenceable(128) %0, i32 noundef %1, ptr noundef %2) unnamed_addr #0 align 2 {
  %4 = alloca ptr, align 8
  %5 = alloca i32, align 4
  %6 = alloca ptr, align 8
  %7 = alloca %"struct.std::pair.237", align 8
  store ptr %0, ptr %4, align 8
  store i32 %1, ptr %5, align 4
  store ptr %2, ptr %6, align 8
  %8 = load ptr, ptr %4, align 8
  %9 = load ptr, ptr %6, align 8
  %10 = call noundef i32 @_ZNK7glslang13TIntermBranch9getFlowOpEv(ptr noundef nonnull align 8 dereferenceable(48) %9)
  %11 = icmp eq i32 %10, 469
  br i1 %11, label %12, label %49

12:                                               ; preds = %3
  %13 = load ptr, ptr %6, align 8
  %14 = call noundef ptr @_ZNK7glslang13TIntermBranch13getExpressionEv(ptr noundef nonnull align 8 dereferenceable(48) %13)
  %15 = icmp ne ptr %14, null
  br i1 %15, label %16, label %49

16:                                               ; preds = %12
  %17 = getelementptr inbounds %"class.(anonymous namespace)::TSymbolDefinitionCollectingTraverser", ptr %8, i32 0, i32 6
  %18 = load ptr, ptr %17, align 8
  %19 = icmp ne ptr %18, null
  br i1 %19, label %20, label %49

20:                                               ; preds = %16
  %21 = getelementptr inbounds %"class.(anonymous namespace)::TSymbolDefinitionCollectingTraverser", ptr %8, i32 0, i32 6
  %22 = load ptr, ptr %21, align 8
  %23 = load ptr, ptr %22, align 8
  %24 = getelementptr inbounds ptr, ptr %23, i64 30
  %25 = load ptr, ptr %24, align 8
  %26 = call noundef nonnull align 8 dereferenceable(152) ptr %25(ptr noundef nonnull align 8 dereferenceable(184) %22)
  %27 = load ptr, ptr %26, align 8
  %28 = getelementptr inbounds ptr, ptr %27, i64 11
  %29 = load ptr, ptr %28, align 8
  %30 = call noundef nonnull align 8 dereferenceable(80) ptr %29(ptr noundef nonnull align 8 dereferenceable(152) %26)
  %31 = getelementptr inbounds %"class.glslang::TQualifier", ptr %30, i32 0, i32 1
  %32 = load i64, ptr %31, align 8
  %33 = lshr i64 %32, 36
  %34 = and i64 %33, 1
  %35 = trunc i64 %34 to i1
  br i1 %35, label %36, label %49

36:                                               ; preds = %20
  %37 = getelementptr inbounds %"class.(anonymous namespace)::TSymbolDefinitionCollectingTraverser", ptr %8, i32 0, i32 3
  %38 = load ptr, ptr %37, align 8
  %39 = call { ptr, i8 } @_ZNSt13unordered_setIPN7glslang13TIntermBranchESt4hashIS2_ESt8equal_toIS2_ESaIS2_EE6insertERKS2_(ptr noundef nonnull align 8 dereferenceable(56) %38, ptr noundef nonnull align 8 dereferenceable(8) %6)
  %40 = getelementptr inbounds { ptr, i8 }, ptr %7, i32 0, i32 0
  %41 = extractvalue { ptr, i8 } %39, 0
  store ptr %41, ptr %40, align 8
  %42 = getelementptr inbounds { ptr, i8 }, ptr %7, i32 0, i32 1
  %43 = extractvalue { ptr, i8 } %39, 1
  store i8 %43, ptr %42, align 8
  %44 = load ptr, ptr %6, align 8
  %45 = call noundef ptr @_ZNK7glslang13TIntermBranch13getExpressionEv(ptr noundef nonnull align 8 dereferenceable(48) %44)
  %46 = load ptr, ptr %45, align 8
  %47 = getelementptr inbounds ptr, ptr %46, i64 2
  %48 = load ptr, ptr %47, align 8
  call void %48(ptr noundef nonnull align 8 dereferenceable(32) %45, ptr noundef %8)
  br label %49

49:                                               ; preds = %36, %20, %16, %12, %3
  ret i1 false
}