; Function Attrs: mustprogress nounwind uwtable
define internal noundef zeroext i1 @_ZN12_GLOBAL__N_136TSymbolDefinitionCollectingTraverser11visitBranchEN7glslang6TVisitEPNS1_13TIntermBranchE(ptr noundef nonnull align 8 dereferenceable(128) %0, i32 %1, ptr noundef %2) unnamed_addr #0 align 2 {
  %4 = alloca %"struct.std::__detail::_AllocNode.240", align 8
  %5 = alloca ptr, align 8
  store ptr %2, ptr %5, align 8
  %6 = getelementptr inbounds i8, ptr %2, i64 32
  %7 = load i32, ptr %6, align 8
  %8 = icmp eq i32 %7, 469
  br i1 %8, label %9, label %37

9:                                                ; preds = %3
  %10 = getelementptr inbounds i8, ptr %2, i64 40
  %11 = load ptr, ptr %10, align 8
  %.not = icmp eq ptr %11, null
  br i1 %.not, label %37, label %12

12:                                               ; preds = %9
  %13 = getelementptr inbounds i8, ptr %0, i64 120
  %14 = load ptr, ptr %13, align 8
  %.not1 = icmp eq ptr %14, null
  br i1 %.not1, label %37, label %15

15:                                               ; preds = %12
  %16 = load ptr, ptr %14, align 8
  %17 = getelementptr inbounds i8, ptr %16, i64 240
  %18 = load ptr, ptr %17, align 8
  %19 = tail call noundef nonnull align 8 dereferenceable(152) ptr %18(ptr noundef nonnull align 8 dereferenceable(184) %14) #16
  %20 = load ptr, ptr %19, align 8
  %21 = getelementptr inbounds i8, ptr %20, i64 88
  %22 = load ptr, ptr %21, align 8
  %23 = tail call noundef nonnull align 8 dereferenceable(80) ptr %22(ptr noundef nonnull align 8 dereferenceable(152) %19) #16
  %24 = getelementptr inbounds i8, ptr %23, i64 8
  %25 = load i64, ptr %24, align 8
  %26 = and i64 %25, 68719476736
  %.not2 = icmp eq i64 %26, 0
  br i1 %.not2, label %37, label %27

27:                                               ; preds = %15
  %28 = getelementptr inbounds i8, ptr %0, i64 72
  %29 = load ptr, ptr %28, align 8
  call void @llvm.lifetime.start.p0(i64 8, ptr nonnull %4)
  store ptr %29, ptr %4, align 8
  %30 = call { ptr, i8 } @_ZNSt10_HashtableIPN7glslang13TIntermBranchES2_SaIS2_ENSt8__detail9_IdentityESt8equal_toIS2_ESt4hashIS2_ENS4_18_Mod_range_hashingENS4_20_Default_ranged_hashENS4_20_Prime_rehash_policyENS4_17_Hashtable_traitsILb0ELb1ELb1EEEE16_M_insert_uniqueIRKS2_SI_NS4_10_AllocNodeISaINS4_10_Hash_nodeIS2_Lb0EEEEEEEESt4pairINS4_14_Node_iteratorIS2_Lb1ELb0EEEbEOT_OT0_RKT1_(ptr noundef nonnull align 8 dereferenceable(56) %29, ptr noundef nonnull align 8 dereferenceable(8) %5, ptr noundef nonnull align 8 dereferenceable(8) %5, ptr noundef nonnull align 8 dereferenceable(8) %4)
  call void @llvm.lifetime.end.p0(i64 8, ptr nonnull %4)
  %31 = load ptr, ptr %5, align 8
  %32 = getelementptr inbounds i8, ptr %31, i64 40
  %33 = load ptr, ptr %32, align 8
  %34 = load ptr, ptr %33, align 8
  %35 = getelementptr inbounds i8, ptr %34, i64 16
  %36 = load ptr, ptr %35, align 8
  call void %36(ptr noundef nonnull align 8 dereferenceable(32) %33, ptr noundef nonnull %0) #16
  br label %37

37:                                               ; preds = %27, %15, %12, %9, %3
  ret i1 false
}